target datalayout = "e-m:e-p270:32:32-p271:32:32-p272:64:64-i64:64-i128:128-f80:128-n8:16:32:64-S128"
target triple = "x86_64-pc-linux-gnu"

%struct.AVFilterContext = type { ptr, ptr, ptr, ptr, ptr, i32, ptr, ptr, i32, ptr, ptr, i32, i32, ptr, ptr, ptr, ptr, i32, ptr, i32, i32 }
%struct.ADenormContext = type { ptr, double, double, i32, i64, [4 x ptr] }

; Function Attrs: nounwind uwtable
define internal void @ps_denorm_dblp(ptr noundef %0, ptr noundef %1, ptr noundef %2, i32 noundef %3) #1 {
  %5 = alloca ptr, align 8
  %6 = alloca ptr, align 8
  %7 = alloca ptr, align 8
  %8 = alloca i32, align 4
  %9 = alloca ptr, align 8
  %10 = alloca ptr, align 8
  %11 = alloca ptr, align 8
  %12 = alloca double, align 8
  %13 = alloca i64, align 8
  %14 = alloca i32, align 4
  store ptr %0, ptr %5, align 8, !tbaa !23
  store ptr %1, ptr %6, align 8, !tbaa !52
  store ptr %2, ptr %7, align 8, !tbaa !52
  store i32 %3, ptr %8, align 4, !tbaa !53
  call void @llvm.lifetime.start.p0(i64 8, ptr %9) #6
  %15 = load ptr, ptr %5, align 8, !tbaa !23
  %16 = getelementptr inbounds nuw %struct.AVFilterContext, ptr %15, i32 0, i32 9
  %17 = load ptr, ptr %16, align 8, !tbaa !24
  store ptr %17, ptr %9, align 8, !tbaa !34
  call void @llvm.lifetime.start.p0(i64 8, ptr %10) #6
  %18 = load ptr, ptr %7, align 8, !tbaa !52
  store ptr %18, ptr %10, align 8, !tbaa !73
  call void @llvm.lifetime.start.p0(i64 8, ptr %11) #6
  %19 = load ptr, ptr %6, align 8, !tbaa !52
  store ptr %19, ptr %11, align 8, !tbaa !73
  call void @llvm.lifetime.start.p0(i64 8, ptr %12) #6
  %20 = load ptr, ptr %9, align 8, !tbaa !34
  %21 = getelementptr inbounds nuw %struct.ADenormContext, ptr %20, i32 0, i32 1
  %22 = load double, ptr %21, align 8, !tbaa !46
  store double %22, ptr %12, align 8, !tbaa !74
  call void @llvm.lifetime.start.p0(i64 8, ptr %13) #6
  %23 = load ptr, ptr %9, align 8, !tbaa !34
  %24 = getelementptr inbounds nuw %struct.ADenormContext, ptr %23, i32 0, i32 4
  %25 = load i64, ptr %24, align 8, !tbaa !51
  store i64 %25, ptr %13, align 8, !tbaa !69
  call void @llvm.lifetime.start.p0(i64 4, ptr %14) #6
  store i32 0, ptr %14, align 4, !tbaa !53
  br label %26

26:                                               ; preds = %50, %4
  %27 = load i32, ptr %14, align 4, !tbaa !53
  %28 = load i32, ptr %8, align 4, !tbaa !53
  %29 = icmp slt i32 %27, %28
  br i1 %29, label %31, label %30

30:                                               ; preds = %26
  call void @llvm.lifetime.end.p0(i64 4, ptr %14) #6
  br label %53

31:                                               ; preds = %26
  %32 = load ptr, ptr %10, align 8, !tbaa !73
  %33 = load i32, ptr %14, align 4, !tbaa !53
  %34 = sext i32 %33 to i64
  %35 = getelementptr inbounds double, ptr %32, i64 %34
  %36 = load double, ptr %35, align 8, !tbaa !74
  %37 = load double, ptr %12, align 8, !tbaa !74
  %38 = load i64, ptr %13, align 8, !tbaa !69
  %39 = load i32, ptr %14, align 4, !tbaa !53
  %40 = sext i32 %39 to i64
  %41 = add nsw i64 %38, %40
  %42 = and i64 %41, 255
  %43 = icmp ne i64 %42, 0
  %44 = select nsz i1 %43, double 0.000000e+00, double 1.000000e+00
  %45 = call nsz double @llvm.fmuladd.f64(double %37, double %44, double %36)
  %46 = load ptr, ptr %11, align 8, !tbaa !73
  %47 = load i32, ptr %14, align 4, !tbaa !53
  %48 = sext i32 %47 to i64
  %49 = getelementptr inbounds double, ptr %46, i64 %48
  store double %45, ptr %49, align 8, !tbaa !74
  br label %50

50:                                               ; preds = %31
  %51 = load i32, ptr %14, align 4, !tbaa !53
  %52 = add nsw i32 %51, 1
  store i32 %52, ptr %14, align 4, !tbaa !53
  br label %26, !llvm.loop !78

53:                                               ; preds = %30
  call void @llvm.lifetime.end.p0(i64 8, ptr %13) #6
  call void @llvm.lifetime.end.p0(i64 8, ptr %12) #6
  call void @llvm.lifetime.end.p0(i64 8, ptr %11) #6
  call void @llvm.lifetime.end.p0(i64 8, ptr %10) #6
  call void @llvm.lifetime.end.p0(i64 8, ptr %9) #6
  ret void
}